target datalayout = "e-m:e-p270:32:32-p271:32:32-p272:64:64-i64:64-i128:128-f80:128-n8:16:32:64-S128"
target triple = "x86_64-pc-linux-gnu"

; Function Attrs: nounwind uwtable
define internal float @avifToGammaLog100(float noundef %0) #0 {
  %2 = alloca float, align 4
  store float %0, ptr %2, align 4
  %3 = load float, ptr %2, align 4
  %4 = fcmp ole float %3, 0x3F847AE140000000
  br i1 %4, label %5, label %6

5:                                                ; preds = %1
  br label %17

6:                                                ; preds = %1
  %7 = load float, ptr %2, align 4
  %8 = fcmp olt float %7, 1.000000e+00
  br i1 %8, label %9, label %11

9:                                                ; preds = %6
  %10 = load float, ptr %2, align 4
  br label %12

11:                                               ; preds = %6
  br label %12

12:                                               ; preds = %11, %9
  %13 = phi float [ %10, %9 ], [ 1.000000e+00, %11 ]
  %14 = call float @log10f(float noundef %13) #4
  %15 = fdiv float %14, 2.000000e+00
  %16 = fadd float 1.000000e+00, %15
  br label %17

17:                                               ; preds = %12, %5
  %18 = phi float [ 0.000000e+00, %5 ], [ %16, %12 ]
  ret float %18
}